target datalayout = "e-m:e-p270:32:32-p271:32:32-p272:64:64-i64:64-i128:128-f80:128-n8:16:32:64-S128"
target triple = "x86_64-pc-linux-gnu"

%struct.GetBitContext = type { ptr, ptr, i32, i32, i32 }
%struct.JXLEntropyDecoder = type { i64, i32, i32, i32, ptr, %struct.JXLDistributionBundle, ptr }
%struct.JXLDistributionBundle = type { i32, i32, i32, %struct.JXLHybridUintConf, ptr, i32, ptr, i32, i32, i32 }
%struct.JXLHybridUintConf = type { i32, i32, i32 }
%struct.JXLSymbolDistribution = type { %struct.JXLHybridUintConf, i32, i32, i32, %struct.VLC, i32, [258 x i32], [258 x i16], [258 x i16], [258 x i16], i32 }
%struct.VLC = type { i32, ptr, i32, i32 }

; Function Attrs: inlinehint nounwind willreturn memory(none) uwtable
define internal i32 @zero_extend(i32 noundef %0, i32 noundef %1) #6 {
  %3 = alloca i32, align 4
  %4 = alloca i32, align 4
  store i32 %0, ptr %3, align 4, !tbaa !18
  store i32 %1, ptr %4, align 4, !tbaa !18
  %5 = load i32, ptr %3, align 4, !tbaa !18
  %6 = load i32, ptr %4, align 4, !tbaa !18
  %7 = zext i32 %6 to i64
  %8 = sub i64 32, %7
  %9 = trunc i64 %8 to i32
  %10 = shl i32 %5, %9
  %11 = load i32, ptr %4, align 4, !tbaa !18
  %12 = zext i32 %11 to i64
  %13 = sub i64 32, %12
  %14 = trunc i64 %13 to i32
  %15 = lshr i32 %10, %14
  ret i32 %15
}

; Function Attrs: inlinehint nounwind uwtable
define internal i32 @get_bits(ptr noundef %0, i32 noundef %1) #4 {
  %3 = alloca ptr, align 8
  %4 = alloca i32, align 4
  %5 = alloca i32, align 4
  %6 = alloca i32, align 4
  %7 = alloca i32, align 4
  %8 = alloca i32, align 4
  store ptr %0, ptr %3, align 8, !tbaa !77
  store i32 %1, ptr %4, align 4, !tbaa !18
  call void @llvm.lifetime.start.p0(i64 4, ptr %5) #9
  call void @llvm.lifetime.start.p0(i64 4, ptr %6) #9
  %9 = load ptr, ptr %3, align 8, !tbaa !77
  %10 = getelementptr inbounds nuw %struct.GetBitContext, ptr %9, i32 0, i32 2
  %11 = load i32, ptr %10, align 8, !tbaa !79
  store i32 %11, ptr %6, align 4, !tbaa !18
  call void @llvm.lifetime.start.p0(i64 4, ptr %7) #9
  call void @llvm.lifetime.start.p0(i64 4, ptr %8) #9
  %12 = load ptr, ptr %3, align 8, !tbaa !77
  %13 = getelementptr inbounds nuw %struct.GetBitContext, ptr %12, i32 0, i32 4
  %14 = load i32, ptr %13, align 8, !tbaa !81
  store i32 %14, ptr %8, align 4, !tbaa !18
  %15 = load ptr, ptr %3, align 8, !tbaa !77
  %16 = getelementptr inbounds nuw %struct.GetBitContext, ptr %15, i32 0, i32 0
  %17 = load ptr, ptr %16, align 8, !tbaa !85
  %18 = load i32, ptr %6, align 4, !tbaa !18
  %19 = lshr i32 %18, 3
  %20 = zext i32 %19 to i64
  %21 = getelementptr inbounds nuw i8, ptr %17, i64 %20
  %22 = load i32, ptr %21, align 1, !tbaa !43
  %23 = load i32, ptr %6, align 4, !tbaa !18
  %24 = and i32 %23, 7
  %25 = lshr i32 %22, %24
  store i32 %25, ptr %7, align 4, !tbaa !18
  %26 = load i32, ptr %7, align 4, !tbaa !18
  %27 = load i32, ptr %4, align 4, !tbaa !18
  %28 = call i32 @zero_extend(i32 noundef %26, i32 noundef %27) #10
  store i32 %28, ptr %5, align 4, !tbaa !18
  %29 = load i32, ptr %8, align 4, !tbaa !18
  %30 = load i32, ptr %6, align 4, !tbaa !18
  %31 = load i32, ptr %4, align 4, !tbaa !18
  %32 = add i32 %30, %31
  %33 = icmp ugt i32 %29, %32
  br i1 %33, label %34, label %38

34:                                               ; preds = %2
  %35 = load i32, ptr %6, align 4, !tbaa !18
  %36 = load i32, ptr %4, align 4, !tbaa !18
  %37 = add i32 %35, %36
  br label %40

38:                                               ; preds = %2
  %39 = load i32, ptr %8, align 4, !tbaa !18
  br label %40

40:                                               ; preds = %38, %34
  %41 = phi i32 [ %37, %34 ], [ %39, %38 ]
  store i32 %41, ptr %6, align 4, !tbaa !18
  %42 = load i32, ptr %6, align 4, !tbaa !18
  %43 = load ptr, ptr %3, align 8, !tbaa !77
  %44 = getelementptr inbounds nuw %struct.GetBitContext, ptr %43, i32 0, i32 2
  store i32 %42, ptr %44, align 8, !tbaa !79
  %45 = load i32, ptr %5, align 4, !tbaa !18
  call void @llvm.lifetime.end.p0(i64 4, ptr %8) #9
  call void @llvm.lifetime.end.p0(i64 4, ptr %7) #9
  call void @llvm.lifetime.end.p0(i64 4, ptr %6) #9
  call void @llvm.lifetime.end.p0(i64 4, ptr %5) #9
  ret i32 %45
}

; Function Attrs: inlinehint nounwind uwtable
define internal i32 @get_bits_long(ptr noundef %0, i32 noundef %1) #4 {
  %3 = alloca i32, align 4
  %4 = alloca ptr, align 8
  %5 = alloca i32, align 4
  %6 = alloca i32, align 4
  store ptr %0, ptr %4, align 8, !tbaa !77
  store i32 %1, ptr %5, align 4, !tbaa !18
  %7 = load i32, ptr %5, align 4, !tbaa !18
  %8 = icmp ne i32 %7, 0
  br i1 %8, label %10, label %9

9:                                                ; preds = %2
  store i32 0, ptr %3, align 4
  br label %27

10:                                               ; preds = %2
  %11 = load i32, ptr %5, align 4, !tbaa !18
  %12 = icmp sle i32 %11, 25
  br i1 %12, label %13, label %17

13:                                               ; preds = %10
  %14 = load ptr, ptr %4, align 8, !tbaa !77
  %15 = load i32, ptr %5, align 4, !tbaa !18
  %16 = call i32 @get_bits(ptr noundef %14, i32 noundef %15)
  store i32 %16, ptr %3, align 4
  br label %27

17:                                               ; preds = %10
  call void @llvm.lifetime.start.p0(i64 4, ptr %6) #9
  %18 = load ptr, ptr %4, align 8, !tbaa !77
  %19 = call i32 @get_bits(ptr noundef %18, i32 noundef 16)
  store i32 %19, ptr %6, align 4, !tbaa !18
  %20 = load i32, ptr %6, align 4, !tbaa !18
  %21 = load ptr, ptr %4, align 8, !tbaa !77
  %22 = load i32, ptr %5, align 4, !tbaa !18
  %23 = sub nsw i32 %22, 16
  %24 = call i32 @get_bits(ptr noundef %21, i32 noundef %23)
  %25 = shl i32 %24, 16
  %26 = or i32 %20, %25
  store i32 %26, ptr %3, align 4
  call void @llvm.lifetime.end.p0(i64 4, ptr %6) #9
  br label %27

27:                                               ; preds = %17, %13, %9
  %28 = load i32, ptr %3, align 4
  ret i32 %28
}

; Function Attrs: nounwind uwtable
define internal i32 @read_ans_symbol(ptr noundef %0, ptr noundef %1, ptr noundef %2) #0 {
  %4 = alloca ptr, align 8
  %5 = alloca ptr, align 8
  %6 = alloca ptr, align 8
  %7 = alloca i32, align 4
  %8 = alloca i32, align 4
  %9 = alloca i32, align 4
  %10 = alloca i32, align 4
  %11 = alloca i32, align 4
  store ptr %0, ptr %4, align 8, !tbaa !77
  store ptr %1, ptr %5, align 8, !tbaa !106
  store ptr %2, ptr %6, align 8, !tbaa !126
  call void @llvm.lifetime.start.p0(i64 4, ptr %7) #9
  call void @llvm.lifetime.start.p0(i64 4, ptr %8) #9
  call void @llvm.lifetime.start.p0(i64 4, ptr %9) #9
  call void @llvm.lifetime.start.p0(i64 4, ptr %10) #9
  call void @llvm.lifetime.start.p0(i64 4, ptr %11) #9
  %12 = load ptr, ptr %5, align 8, !tbaa !106
  %13 = getelementptr inbounds nuw %struct.JXLEntropyDecoder, ptr %12, i32 0, i32 0
  %14 = load i64, ptr %13, align 8, !tbaa !113
  %15 = icmp slt i64 %14, 0
  br i1 %15, label %16, label %22

16:                                               ; preds = %3
  %17 = load ptr, ptr %4, align 8, !tbaa !77
  %18 = call i32 @get_bits_long(ptr noundef %17, i32 noundef 32)
  %19 = zext i32 %18 to i64
  %20 = load ptr, ptr %5, align 8, !tbaa !106
  %21 = getelementptr inbounds nuw %struct.JXLEntropyDecoder, ptr %20, i32 0, i32 0
  store i64 %19, ptr %21, align 8, !tbaa !113
  br label %22

22:                                               ; preds = %16, %3
  %23 = load ptr, ptr %5, align 8, !tbaa !106
  %24 = getelementptr inbounds nuw %struct.JXLEntropyDecoder, ptr %23, i32 0, i32 0
  %25 = load i64, ptr %24, align 8, !tbaa !113
  %26 = and i64 %25, 4095
  %27 = trunc i64 %26 to i32
  store i32 %27, ptr %7, align 4, !tbaa !18
  %28 = load i32, ptr %7, align 4, !tbaa !18
  %29 = load ptr, ptr %6, align 8, !tbaa !126
  %30 = getelementptr inbounds nuw %struct.JXLSymbolDistribution, ptr %29, i32 0, i32 1
  %31 = load i32, ptr %30, align 4, !tbaa !169
  %32 = lshr i32 %28, %31
  store i32 %32, ptr %8, align 4, !tbaa !18
  %33 = load i32, ptr %7, align 4, !tbaa !18
  %34 = load ptr, ptr %6, align 8, !tbaa !126
  %35 = getelementptr inbounds nuw %struct.JXLSymbolDistribution, ptr %34, i32 0, i32 1
  %36 = load i32, ptr %35, align 4, !tbaa !169
  %37 = shl i32 1, %36
  %38 = sub nsw i32 %37, 1
  %39 = and i32 %33, %38
  store i32 %39, ptr %9, align 4, !tbaa !18
  %40 = load i32, ptr %9, align 4, !tbaa !18
  %41 = load ptr, ptr %6, align 8, !tbaa !126
  %42 = getelementptr inbounds nuw %struct.JXLSymbolDistribution, ptr %41, i32 0, i32 7
  %43 = load i32, ptr %8, align 4, !tbaa !18
  %44 = zext i32 %43 to i64
  %45 = getelementptr inbounds nuw [258 x i16], ptr %42, i64 0, i64 %44
  %46 = load i16, ptr %45, align 2, !tbaa !154
  %47 = zext i16 %46 to i32
  %48 = icmp uge i32 %40, %47
  br i1 %48, label %49, label %57

49:                                               ; preds = %22
  %50 = load ptr, ptr %6, align 8, !tbaa !126
  %51 = getelementptr inbounds nuw %struct.JXLSymbolDistribution, ptr %50, i32 0, i32 8
  %52 = load i32, ptr %8, align 4, !tbaa !18
  %53 = zext i32 %52 to i64
  %54 = getelementptr inbounds nuw [258 x i16], ptr %51, i64 0, i64 %53
  %55 = load i16, ptr %54, align 2, !tbaa !154
  %56 = zext i16 %55 to i32
  br label %59

57:                                               ; preds = %22
  %58 = load i32, ptr %8, align 4, !tbaa !18
  br label %59

59:                                               ; preds = %57, %49
  %60 = phi i32 [ %56, %49 ], [ %58, %57 ]
  store i32 %60, ptr %10, align 4, !tbaa !18
  %61 = load i32, ptr %9, align 4, !tbaa !18
  %62 = load ptr, ptr %6, align 8, !tbaa !126
  %63 = getelementptr inbounds nuw %struct.JXLSymbolDistribution, ptr %62, i32 0, i32 7
  %64 = load i32, ptr %8, align 4, !tbaa !18
  %65 = zext i32 %64 to i64
  %66 = getelementptr inbounds nuw [258 x i16], ptr %63, i64 0, i64 %65
  %67 = load i16, ptr %66, align 2, !tbaa !154
  %68 = zext i16 %67 to i32
  %69 = icmp uge i32 %61, %68
  br i1 %69, label %70, label %80

70:                                               ; preds = %59
  %71 = load ptr, ptr %6, align 8, !tbaa !126
  %72 = getelementptr inbounds nuw %struct.JXLSymbolDistribution, ptr %71, i32 0, i32 9
  %73 = load i32, ptr %8, align 4, !tbaa !18
  %74 = zext i32 %73 to i64
  %75 = getelementptr inbounds nuw [258 x i16], ptr %72, i64 0, i64 %74
  %76 = load i16, ptr %75, align 2, !tbaa !154
  %77 = zext i16 %76 to i32
  %78 = load i32, ptr %9, align 4, !tbaa !18
  %79 = add i32 %77, %78
  br label %82

80:                                               ; preds = %59
  %81 = load i32, ptr %9, align 4, !tbaa !18
  br label %82

82:                                               ; preds = %80, %70
  %83 = phi i32 [ %79, %70 ], [ %81, %80 ]
  store i32 %83, ptr %11, align 4, !tbaa !18
  %84 = load ptr, ptr %6, align 8, !tbaa !126
  %85 = getelementptr inbounds nuw %struct.JXLSymbolDistribution, ptr %84, i32 0, i32 6
  %86 = load i32, ptr %10, align 4, !tbaa !18
  %87 = zext i32 %86 to i64
  %88 = getelementptr inbounds nuw [258 x i32], ptr %85, i64 0, i64 %87
  %89 = load i32, ptr %88, align 4, !tbaa !18
  %90 = zext i32 %89 to i64
  %91 = load ptr, ptr %5, align 8, !tbaa !106
  %92 = getelementptr inbounds nuw %struct.JXLEntropyDecoder, ptr %91, i32 0, i32 0
  %93 = load i64, ptr %92, align 8, !tbaa !113
  %94 = ashr i64 %93, 12
  %95 = mul nsw i64 %90, %94
  %96 = load i32, ptr %11, align 4, !tbaa !18
  %97 = zext i32 %96 to i64
  %98 = add nsw i64 %95, %97
  %99 = load ptr, ptr %5, align 8, !tbaa !106
  %100 = getelementptr inbounds nuw %struct.JXLEntropyDecoder, ptr %99, i32 0, i32 0
  store i64 %98, ptr %100, align 8, !tbaa !113
  %101 = load ptr, ptr %5, align 8, !tbaa !106
  %102 = getelementptr inbounds nuw %struct.JXLEntropyDecoder, ptr %101, i32 0, i32 0
  %103 = load i64, ptr %102, align 8, !tbaa !113
  %104 = icmp slt i64 %103, 65536
  br i1 %104, label %105, label %116

105:                                              ; preds = %82
  %106 = load ptr, ptr %5, align 8, !tbaa !106
  %107 = getelementptr inbounds nuw %struct.JXLEntropyDecoder, ptr %106, i32 0, i32 0
  %108 = load i64, ptr %107, align 8, !tbaa !113
  %109 = shl i64 %108, 16
  %110 = load ptr, ptr %4, align 8, !tbaa !77
  %111 = call i32 @get_bits(ptr noundef %110, i32 noundef 16)
  %112 = zext i32 %111 to i64
  %113 = or i64 %109, %112
  %114 = load ptr, ptr %5, align 8, !tbaa !106
  %115 = getelementptr inbounds nuw %struct.JXLEntropyDecoder, ptr %114, i32 0, i32 0
  store i64 %113, ptr %115, align 8, !tbaa !113
  br label %116

116:                                              ; preds = %105, %82
  %117 = load ptr, ptr %5, align 8, !tbaa !106
  %118 = getelementptr inbounds nuw %struct.JXLEntropyDecoder, ptr %117, i32 0, i32 0
  %119 = load i64, ptr %118, align 8, !tbaa !113
  %120 = and i64 %119, 4294967295
  store i64 %120, ptr %118, align 8, !tbaa !113
  %121 = load i32, ptr %10, align 4, !tbaa !18
  call void @llvm.lifetime.end.p0(i64 4, ptr %11) #9
  call void @llvm.lifetime.end.p0(i64 4, ptr %10) #9
  call void @llvm.lifetime.end.p0(i64 4, ptr %9) #9
  call void @llvm.lifetime.end.p0(i64 4, ptr %8) #9
  call void @llvm.lifetime.end.p0(i64 4, ptr %7) #9
  ret i32 %121
}