; Function Attrs: mustprogress nofree norecurse nosync nounwind willreturn memory(read, argmem: readwrite, inaccessiblemem: none) uwtable
define internal fastcc range(i32 0, 65536) i32 @read_ans_symbol(ptr noundef nonnull captures(none) %0, ptr noundef nonnull captures(none) %1, ptr noundef readonly captures(none) %2) unnamed_addr #5 {
  %4 = load i64, ptr %1, align 8, !tbaa !86
  %5 = icmp slt i64 %4, 0
  br i1 %5, label %6, label %32

6:                                                ; preds = %3
  %7 = getelementptr inbounds nuw i8, ptr %0, i64 16
  %8 = load i32, ptr %7, align 8, !tbaa !65
  %9 = getelementptr inbounds nuw i8, ptr %0, i64 24
  %10 = load i32, ptr %9, align 8, !tbaa !63
  %11 = load ptr, ptr %0, align 8, !tbaa !60
  %12 = lshr i32 %8, 3
  %13 = zext nneg i32 %12 to i64
  %14 = getelementptr inbounds nuw i8, ptr %11, i64 %13
  %15 = load i32, ptr %14, align 1, !tbaa !28
  %16 = and i32 %8, 7
  %17 = lshr i32 %15, %16
  %18 = and i32 %17, 65535
  %19 = add i32 %8, 16
  %20 = tail call i32 @llvm.umin.i32(i32 %10, i32 %19)
  store i32 %20, ptr %7, align 8, !tbaa !65
  %21 = lshr i32 %20, 3
  %22 = zext nneg i32 %21 to i64
  %23 = getelementptr inbounds nuw i8, ptr %11, i64 %22
  %24 = load i32, ptr %23, align 1, !tbaa !28
  %25 = and i32 %20, 7
  %26 = lshr i32 %24, %25
  %27 = add i32 %20, 16
  %28 = tail call i32 @llvm.umin.i32(i32 %10, i32 %27)
  store i32 %28, ptr %7, align 8, !tbaa !65
  %29 = shl i32 %26, 16
  %30 = or disjoint i32 %29, %18
  %31 = zext i32 %30 to i64
  br label %32

32:                                               ; preds = %6, %3
  %33 = phi i64 [ %31, %6 ], [ %4, %3 ]
  %34 = trunc i64 %33 to i32
  %35 = and i32 %34, 4095
  %36 = getelementptr inbounds nuw i8, ptr %2, i64 12
  %37 = load i32, ptr %36, align 4, !tbaa !139
  %38 = lshr i32 %35, %37
  %notmask = shl nsw i32 -1, %37
  %39 = xor i32 %notmask, -1
  %40 = and i32 %35, %39
  %41 = getelementptr inbounds nuw i8, ptr %2, i64 1084
  %42 = zext nneg i32 %38 to i64
  %43 = getelementptr inbounds nuw [258 x i16], ptr %41, i64 0, i64 %42
  %44 = load i16, ptr %43, align 2, !tbaa !122
  %45 = zext i16 %44 to i32
  %.not = icmp samesign ult i32 %40, %45
  br i1 %.not, label %.thread, label %46

46:                                               ; preds = %32
  %47 = getelementptr inbounds nuw i8, ptr %2, i64 1600
  %48 = getelementptr inbounds nuw [258 x i16], ptr %47, i64 0, i64 %42
  %49 = load i16, ptr %48, align 2, !tbaa !122
  %50 = zext i16 %49 to i32
  %51 = getelementptr inbounds nuw i8, ptr %2, i64 2116
  %52 = getelementptr inbounds nuw [258 x i16], ptr %51, i64 0, i64 %42
  %53 = load i16, ptr %52, align 2, !tbaa !122
  %54 = zext i16 %53 to i32
  %55 = add nuw nsw i32 %40, %54
  %.pre = zext i16 %49 to i64
  br label %.thread

.thread:                                          ; preds = %32, %46
  %.pre-phi = phi i64 [ %42, %32 ], [ %.pre, %46 ]
  %56 = phi i32 [ %38, %32 ], [ %50, %46 ]
  %57 = phi i32 [ %40, %32 ], [ %55, %46 ]
  %58 = getelementptr inbounds nuw i8, ptr %2, i64 52
  %59 = getelementptr inbounds nuw [258 x i32], ptr %58, i64 0, i64 %.pre-phi
  %60 = load i32, ptr %59, align 4, !tbaa !9
  %61 = zext i32 %60 to i64
  %62 = lshr i64 %33, 12
  %63 = mul nuw nsw i64 %62, %61
  %64 = zext nneg i32 %57 to i64
  %65 = add nuw nsw i64 %63, %64
  store i64 %65, ptr %1, align 8, !tbaa !86
  %66 = icmp samesign ult i64 %65, 65536
  br i1 %66, label %67, label %85

67:                                               ; preds = %.thread
  %68 = shl nuw nsw i64 %65, 16
  %69 = getelementptr inbounds nuw i8, ptr %0, i64 16
  %70 = load i32, ptr %69, align 8, !tbaa !65
  %71 = getelementptr inbounds nuw i8, ptr %0, i64 24
  %72 = load i32, ptr %71, align 8, !tbaa !63
  %73 = load ptr, ptr %0, align 8, !tbaa !60
  %74 = lshr i32 %70, 3
  %75 = zext nneg i32 %74 to i64
  %76 = getelementptr inbounds nuw i8, ptr %73, i64 %75
  %77 = load i32, ptr %76, align 1, !tbaa !28
  %78 = and i32 %70, 7
  %79 = lshr i32 %77, %78
  %80 = and i32 %79, 65535
  %81 = add i32 %70, 16
  %82 = tail call i32 @llvm.umin.i32(i32 %72, i32 %81)
  store i32 %82, ptr %69, align 8, !tbaa !65
  %83 = zext nneg i32 %80 to i64
  %84 = or disjoint i64 %68, %83
  br label %85

85:                                               ; preds = %67, %.thread
  %86 = phi i64 [ %84, %67 ], [ %65, %.thread ]
  %87 = and i64 %86, 4294967295
  store i64 %87, ptr %1, align 8, !tbaa !86
  ret i32 %56
}